; ModuleID = 'source-C-CXX/10/805.c'
source_filename = "source-C-CXX/10/805.c"
target datalayout = "e-m:e-p270:32:32-p271:32:32-p272:64:64-i64:64-f80:128-n8:16:32:64-S128"
target triple = "x86_64-pc-linux-gnu"

%struct._IO_FILE = type { i32, i8*, i8*, i8*, i8*, i8*, i8*, i8*, i8*, i8*, i8*, i8*, %struct._IO_marker*, %struct._IO_FILE*, i32, i32, i64, i16, i8, [1 x i8], i8*, i64, %struct._IO_codecvt*, %struct._IO_wide_data*, %struct._IO_FILE*, i8*, i64, i32, [20 x i8] }
%struct._IO_marker = type opaque
%struct._IO_codecvt = type opaque
%struct._IO_wide_data = type opaque

@.str = private unnamed_addr constant [9 x i8] c"%d %d %d\00", align 1
@.str.1 = private unnamed_addr constant [3 x i8] c"%d\00", align 1
@stdin = external local_unnamed_addr global %struct._IO_FILE*, align 8

; Function Attrs: nofree nounwind sspstrong uwtable
define dso_local i32 @main() local_unnamed_addr #0 {
  %1 = alloca i32, align 4
  %2 = alloca i32, align 4
  %3 = alloca i32, align 4
  %4 = alloca [16 x i32], align 16
  %5 = bitcast i32* %1 to i8*
  call void @llvm.lifetime.start.p0i8(i64 4, i8* nonnull %5) #3
  %6 = bitcast i32* %2 to i8*
  call void @llvm.lifetime.start.p0i8(i64 4, i8* nonnull %6) #3
  %7 = bitcast i32* %3 to i8*
  call void @llvm.lifetime.start.p0i8(i64 4, i8* nonnull %7) #3
  %8 = call i32 (i8*, ...) @__isoc99_scanf(i8* getelementptr inbounds ([9 x i8], [9 x i8]* @.str, i64 0, i64 0), i32* nonnull %1, i32* nonnull %2, i32* nonnull %3)
  %9 = load i32, i32* %1, align 4, !tbaa !5
  %10 = srem i32 %9, 400
  %11 = icmp eq i32 %10, 0
  %12 = bitcast [16 x i32]* %4 to i8*
  call void @llvm.lifetime.start.p0i8(i64 64, i8* nonnull %12) #3
  %13 = select i1 %11, i32 60, i32 59
  %14 = bitcast [16 x i32]* %4 to i8*
  %15 = getelementptr inbounds [16 x i32], [16 x i32]* %4, i64 0, i64 1
  store i32 0, i32* %15, align 4, !tbaa !5
  %16 = getelementptr inbounds [16 x i32], [16 x i32]* %4, i64 0, i64 2
  store i32 31, i32* %16, align 8, !tbaa !5
  %17 = getelementptr inbounds [16 x i32], [16 x i32]* %4, i64 0, i64 3
  store i32 %13, i32* %17, align 4, !tbaa !5
  %18 = getelementptr inbounds [16 x i32], [16 x i32]* %4, i64 0, i64 4
  %19 = insertelement <4 x i32> poison, i32 %13, i32 0
  %20 = shufflevector <4 x i32> %19, <4 x i32> poison, <4 x i32> zeroinitializer
  %21 = add nuw nsw <4 x i32> %20, <i32 31, i32 61, i32 92, i32 122>
  %22 = bitcast i32* %18 to <4 x i32>*
  store <4 x i32> %21, <4 x i32>* %22, align 16, !tbaa !5
  %23 = getelementptr inbounds [16 x i32], [16 x i32]* %4, i64 0, i64 8
  %24 = add nuw nsw <4 x i32> %20, <i32 153, i32 184, i32 214, i32 245>
  %25 = bitcast i32* %23 to <4 x i32>*
  store <4 x i32> %24, <4 x i32>* %25, align 16, !tbaa !5
  %26 = add nuw nsw i32 %13, 275
  %27 = getelementptr inbounds [16 x i32], [16 x i32]* %4, i64 0, i64 12
  store i32 %26, i32* %27, align 16, !tbaa !5
  %28 = load i32, i32* %2, align 4, !tbaa !5
  %29 = sext i32 %28 to i64
  %30 = getelementptr inbounds [16 x i32], [16 x i32]* %4, i64 0, i64 %29
  %31 = load i32, i32* %30, align 4, !tbaa !5
  %32 = load i32, i32* %3, align 4, !tbaa !5
  %33 = add nsw i32 %32, %31
  %34 = call i32 (i8*, ...) @printf(i8* nonnull dereferenceable(1) getelementptr inbounds ([3 x i8], [3 x i8]* @.str.1, i64 0, i64 0), i32 %33)
  %35 = load %struct._IO_FILE*, %struct._IO_FILE** @stdin, align 8, !tbaa !9
  %36 = call i32 @getc(%struct._IO_FILE* %35) #3
  %37 = load %struct._IO_FILE*, %struct._IO_FILE** @stdin, align 8, !tbaa !9
  %38 = call i32 @getc(%struct._IO_FILE* %37) #3
  call void @llvm.lifetime.end.p0i8(i64 64, i8* nonnull %14) #3
  call void @llvm.lifetime.end.p0i8(i64 4, i8* nonnull %7) #3
  call void @llvm.lifetime.end.p0i8(i64 4, i8* nonnull %6) #3
  call void @llvm.lifetime.end.p0i8(i64 4, i8* nonnull %5) #3
  ret i32 0
}

; Function Attrs: argmemonly mustprogress nofree nosync nounwind willreturn
declare void @llvm.lifetime.start.p0i8(i64 immarg, i8* nocapture) #1

; Function Attrs: nofree nounwind
declare noundef i32 @__isoc99_scanf(i8* nocapture noundef readonly, ...) local_unnamed_addr #2

; Function Attrs: argmemonly mustprogress nofree nosync nounwind willreturn
declare void @llvm.lifetime.end.p0i8(i64 immarg, i8* nocapture) #1

; Function Attrs: nofree nounwind
declare noundef i32 @printf(i8* nocapture noundef readonly, ...) local_unnamed_addr #2

; Function Attrs: nofree nounwind
declare noundef i32 @getc(%struct._IO_FILE* nocapture noundef) local_unnamed_addr #2


!llvm.module.flags = !{!0, !1, !2, !3}
!llvm.ident = !{!4}

!0 = !{i32 1, !"wchar_size", i32 4}
!1 = !{i32 7, !"PIC Level", i32 2}
!2 = !{i32 7, !"PIE Level", i32 2}
!3 = !{i32 7, !"uwtable", i32 1}
!4 = !{!"clang version 13.0.0"}
!5 = !{!6, !6, i64 0}
!6 = !{!"int", !7, i64 0}
!7 = !{!"omnipotent char", !8, i64 0}
!8 = !{!"Simple C/C++ TBAA"}
!9 = !{!10, !10, i64 0}
!10 = !{!"any pointer", !7, i64 0}
